(dp0
S'rank_test_score'
p1
cnumpy.core.multiarray
_reconstruct
p2
(cnumpy
ndarray
p3
(I0
tp4
S'b'
p5
tp6
Rp7
(I1
(L1L
tp8
cnumpy
dtype
p9
(S'i4'
p10
I0
I1
tp11
Rp12
(I3
S'<'
p13
NNNI-1
I-1
I0
tp14
bI00
S'\x01\x00\x00\x00'
p15
tp16
bsS'split6_test_score'
p17
g2
(g3
(I0
tp18
g5
tp19
Rp20
(I1
(L1L
tp21
g9
(S'f8'
p22
I0
I1
tp23
Rp24
(I3
S'<'
p25
NNNI-1
I-1
I0
tp26
bI00
S'\x18\x130#*B\xb1\xbf'
p27
tp28
bsS'split7_train_score'
p29
g2
(g3
(I0
tp30
g5
tp31
Rp32
(I1
(L1L
tp33
g24
I00
S'\xb7\x8c\x9e\xfc4\x0c\xa7\xbf'
p34
tp35
bsS'split0_train_score'
p36
g2
(g3
(I0
tp37
g5
tp38
Rp39
(I1
(L1L
tp40
g24
I00
S'\x15\x0f\xe13\xc2\xe9\xa5\xbf'
p41
tp42
bsS'split2_test_score'
p43
g2
(g3
(I0
tp44
g5
tp45
Rp46
(I1
(L1L
tp47
g24
I00
S'\xa0\xe2\x18S\xfc|\xa7\xbf'
p48
tp49
bsS'mean_fit_time'
p50
g2
(g3
(I0
tp51
g5
tp52
Rp53
(I1
(L1L
tp54
g24
I00
S'\xcd\xcc\xcc\xcc\xbc\x0e\x8c?'
p55
tp56
bsS'split3_train_score'
p57
g2
(g3
(I0
tp58
g5
tp59
Rp60
(I1
(L1L
tp61
g24
I00
S'\xdcm\xf5\x08F\x86\xa6\xbf'
p62
tp63
bsS'split6_train_score'
p64
g2
(g3
(I0
tp65
g5
tp66
Rp67
(I1
(L1L
tp68
g24
I00
S'\x0f1\xb6\x14h\x9c\xa5\xbf'
p69
tp70
bsS'split9_test_score'
p71
g2
(g3
(I0
tp72
g5
tp73
Rp74
(I1
(L1L
tp75
g24
I00
S'\xa3{J\xe4\x10\xf5\xb1\xbf'
p76
tp77
bsS'std_test_score'
p78
g2
(g3
(I0
tp79
g5
tp80
Rp81
(I1
(L1L
tp82
g24
I00
S'\x97\x1a\xc2\x9e4y\x82?'
p83
tp84
bsS'params'
p85
(lp86
(dp87
asS'std_fit_time'
p88
g2
(g3
(I0
tp89
g5
tp90
Rp91
(I1
(L1L
tp92
g24
I00
S'\xfa\xdc,`;\x15d?'
p93
tp94
bsS'std_score_time'
p95
g2
(g3
(I0
tp96
g5
tp97
Rp98
(I1
(L1L
tp99
g24
I00
S'9hs\xdb\xcc5:?'
p100
tp101
bsS'split8_test_score'
p102
g2
(g3
(I0
tp103
g5
tp104
Rp105
(I1
(L1L
tp106
g24
I00
S'\xfe\xce\xe7\xd27\xcc\xb1\xbf'
p107
tp108
bsS'std_train_score'
p109
g2
(g3
(I0
tp110
g5
tp111
Rp112
(I1
(L1L
tp113
g24
I00
S"\xf75\x8d>'\x0eU?"
p114
tp115
bsS'split4_test_score'
p116
g2
(g3
(I0
tp117
g5
tp118
Rp119
(I1
(L1L
tp120
g24
I00
S'#N\xdc\xb2\xfd(\xad\xbf'
p121
tp122
bsS'split1_train_score'
p123
g2
(g3
(I0
tp124
g5
tp125
Rp126
(I1
(L1L
tp127
g24
I00
S'X\xb1\xdf\xb2N\x01\xa7\xbf'
p128
tp129
bsS'split2_train_score'
p130
g2
(g3
(I0
tp131
g5
tp132
Rp133
(I1
(L1L
tp134
g24
I00
S'\x95z@\xd3\xa0\x8f\xa6\xbf'
p135
tp136
bsS'split4_train_score'
p137
g2
(g3
(I0
tp138
g5
tp139
Rp140
(I1
(L1L
tp141
g24
I00
S"\xb6'\x06\xd4\xf6D\xa6\xbf"
p142
tp143
bsS'mean_score_time'
p144
g2
(g3
(I0
tp145
g5
tp146
Rp147
(I1
(L1L
tp148
g24
I00
S'\x9a\x99\x99\x99\x19\xa9S?'
p149
tp150
bsS'split9_train_score'
p151
g2
(g3
(I0
tp152
g5
tp153
Rp154
(I1
(L1L
tp155
g24
I00
S'\xdd_Sz8)\xa5\xbf'
p156
tp157
bsS'split5_test_score'
p158
g2
(g3
(I0
tp159
g5
tp160
Rp161
(I1
(L1L
tp162
g24
I00
S'^\xcfu\x17bg\xa7\xbf'
p163
tp164
bsS'mean_train_score'
p165
g2
(g3
(I0
tp166
g5
tp167
Rp168
(I1
(L1L
tp169
g24
I00
S'\xedF\xc0\x18\x9ch\xa6\xbf'
p170
tp171
bsS'split8_train_score'
p172
g2
(g3
(I0
tp173
g5
tp174
Rp175
(I1
(L1L
tp176
g24
I00
S'-\x085\xbd\x9cn\xa7\xbf'
p177
tp178
bsS'split7_test_score'
p179
g2
(g3
(I0
tp180
g5
tp181
Rp182
(I1
(L1L
tp183
g24
I00
S'\x97F\xf6x\xac\xfd\xa7\xbf'
p184
tp185
bsS'split0_test_score'
p186
g2
(g3
(I0
tp187
g5
tp188
Rp189
(I1
(L1L
tp190
g24
I00
S'Z\x95\xb4\xff\xec\x8d\xaf\xbf'
p191
tp192
bsS'mean_test_score'
p193
g2
(g3
(I0
tp194
g5
tp195
Rp196
(I1
(L1L
tp197
g24
I00
S'S\xb8\xc2d\x9c\x8a\xad\xbf'
p198
tp199
bsS'split3_test_score'
p200
g2
(g3
(I0
tp201
g5
tp202
Rp203
(I1
(L1L
tp204
g24
I00
S'*7\xaf\xe5\xd6%\xac\xbf'
p205
tp206
bsS'split5_train_score'
p207
g2
(g3
(I0
tp208
g5
tp209
Rp210
(I1
(L1L
tp211
g24
I00
S'\xd6\xce\xa8\x17\xb8\x8f\xa6\xbf'
p212
tp213
bsS'split1_test_score'
p214
g2
(g3
(I0
tp215
g5
tp216
Rp217
(I1
(L1L
tp218
g24
I00
S'\x93d\x11\xbfi\xa4\xad\xbf'
p219
tp220
bs.