(dp0
S'rank_test_score'
p1
cnumpy.core.multiarray
_reconstruct
p2
(cnumpy
ndarray
p3
(I0
tp4
S'b'
p5
tp6
Rp7
(I1
(L1L
tp8
cnumpy
dtype
p9
(S'i4'
p10
I0
I1
tp11
Rp12
(I3
S'<'
p13
NNNI-1
I-1
I0
tp14
bI00
S'\x01\x00\x00\x00'
p15
tp16
bsS'split6_test_score'
p17
g2
(g3
(I0
tp18
g5
tp19
Rp20
(I1
(L1L
tp21
g9
(S'f8'
p22
I0
I1
tp23
Rp24
(I3
S'<'
p25
NNNI-1
I-1
I0
tp26
bI00
S'\xbb\xc4\xf1ew\xa1a\xc0'
p27
tp28
bsS'split7_train_score'
p29
g2
(g3
(I0
tp30
g5
tp31
Rp32
(I1
(L1L
tp33
g24
I00
S'C\x08S\xf7\xe1\xe7a\xc0'
p34
tp35
bsS'split0_train_score'
p36
g2
(g3
(I0
tp37
g5
tp38
Rp39
(I1
(L1L
tp40
g24
I00
S'\xe1{a\x9b\xb2\xd0a\xc0'
p41
tp42
bsS'split2_test_score'
p43
g2
(g3
(I0
tp44
g5
tp45
Rp46
(I1
(L1L
tp47
g24
I00
S'6y\xca\xed\x10\xdc\\\xc0'
p48
tp49
bsS'mean_fit_time'
p50
g2
(g3
(I0
tp51
g5
tp52
Rp53
(I1
(L1L
tp54
g24
I00
S'3333\xe3\xa5\x8b?'
p55
tp56
bsS'split3_train_score'
p57
g2
(g3
(I0
tp58
g5
tp59
Rp60
(I1
(L1L
tp61
g24
I00
S'\x95\x87v\\\xe2\xff`\xc0'
p62
tp63
bsS'split6_train_score'
p64
g2
(g3
(I0
tp65
g5
tp66
Rp67
(I1
(L1L
tp68
g24
I00
S'hG\xc5\xb4\x06\x87a\xc0'
p69
tp70
bsS'split9_test_score'
p71
g2
(g3
(I0
tp72
g5
tp73
Rp74
(I1
(L1L
tp75
g24
I00
S'\x02k\x18\xea\xb6\xcdo\xc0'
p76
tp77
bsS'std_test_score'
p78
g2
(g3
(I0
tp79
g5
tp80
Rp81
(I1
(L1L
tp82
g24
I00
S'\x9d\x15\xa3@%>R@'
p83
tp84
bsS'params'
p85
(lp86
(dp87
asS'std_fit_time'
p88
g2
(g3
(I0
tp89
g5
tp90
Rp91
(I1
(L1L
tp92
g24
I00
S'=\x96\xf1\xea!kt?'
p93
tp94
bsS'std_score_time'
p95
g2
(g3
(I0
tp96
g5
tp97
Rp98
(I1
(L1L
tp99
g24
I00
S'i\xd1\x9d\x1e\xac\r@?'
p100
tp101
bsS'split8_test_score'
p102
g2
(g3
(I0
tp103
g5
tp104
Rp105
(I1
(L1L
tp106
g24
I00
S'J\xbb\x1aN\x8b\x98l\xc0'
p107
tp108
bsS'std_train_score'
p109
g2
(g3
(I0
tp110
g5
tp111
Rp112
(I1
(L1L
tp113
g24
I00
S'`\x8eK\x833\xd43@'
p114
tp115
bsS'split4_test_score'
p116
g2
(g3
(I0
tp117
g5
tp118
Rp119
(I1
(L1L
tp120
g24
I00
S'A\\$\xb1\xb9\xa3e\xc0'
p121
tp122
bsS'split1_train_score'
p123
g2
(g3
(I0
tp124
g5
tp125
Rp126
(I1
(L1L
tp127
g24
I00
S"\r\x90\n.\xc0'_\xc0"
p128
tp129
bsS'split2_train_score'
p130
g2
(g3
(I0
tp131
g5
tp132
Rp133
(I1
(L1L
tp134
g24
I00
S'\xcb\xadX{\x9aNa\xc0'
p135
tp136
bsS'split4_train_score'
p137
g2
(g3
(I0
tp138
g5
tp139
Rp140
(I1
(L1L
tp141
g24
I00
S'\x03T\x93\r\xe1\xc4`\xc0'
p142
tp143
bsS'mean_score_time'
p144
g2
(g3
(I0
tp145
g5
tp146
Rp147
(I1
(L1L
tp148
g24
I00
S'ffff\xe66Z?'
p149
tp150
bsS'split9_train_score'
p151
g2
(g3
(I0
tp152
g5
tp153
Rp154
(I1
(L1L
tp155
g24
I00
S'\xa6]\xfb\xb4\x19\x10T\xc0'
p156
tp157
bsS'split5_test_score'
p158
g2
(g3
(I0
tp159
g5
tp160
Rp161
(I1
(L1L
tp162
g24
I00
S'^7I\xcdk\x89`\xc0'
p163
tp164
bsS'mean_train_score'
p165
g2
(g3
(I0
tp166
g5
tp167
Rp168
(I1
(L1L
tp169
g24
I00
S'\xd1\xfdNzk\xbc`\xc0'
p170
tp171
bsS'split8_train_score'
p172
g2
(g3
(I0
tp173
g5
tp174
Rp175
(I1
(L1L
tp176
g24
I00
S'\x05\xe5\x11\xaf\xe9\x15d\xc0'
p177
tp178
bsS'split7_test_score'
p179
g2
(g3
(I0
tp180
g5
tp181
Rp182
(I1
(L1L
tp183
g24
I00
S'0\x89\x15\x1a\xb05_\xc0'
p184
tp185
bsS'split0_test_score'
p186
g2
(g3
(I0
tp187
g5
tp188
Rp189
(I1
(L1L
tp190
g24
I00
S'\x13eBD\xd1\xdcb\xc0'
p191
tp192
bsS'mean_test_score'
p193
g2
(g3
(I0
tp194
g5
tp195
Rp196
(I1
(L1L
tp197
g24
I00
S'\xc7J\xf0wu\xf4f\xc0'
p198
tp199
bsS'split3_test_score'
p200
g2
(g3
(I0
tp201
g5
tp202
Rp203
(I1
(L1L
tp204
g24
I00
S'\xd9\xb0\xe4Y\xf5Ec\xc0'
p205
tp206
bsS'split5_train_score'
p207
g2
(g3
(I0
tp208
g5
tp209
Rp210
(I1
(L1L
tp211
g24
I00
S'[\xb9\xa4\xf9bWa\xc0'
p212
tp213
bsS'split1_test_score'
p214
g2
(g3
(I0
tp215
g5
tp216
Rp217
(I1
(L1L
tp218
g24
I00
S'\x00\xab\\8\x08\x96v\xc0'
p219
tp220
bs.